target datalayout = "e-m:e-p270:32:32-p271:32:32-p272:64:64-i64:64-i128:128-f80:128-n8:16:32:64-S128"
target triple = "x86_64-pc-linux-gnu"

@__const._ZN4llvm13X86AsmPrinter12MaskKCFITypeEj.InvalidValues = private unnamed_addr constant [2 x i32] [i32 -98693133, i32 -81915917], align 4

; Function Attrs: mustprogress nounwind uwtable
define hidden noundef i32 @_ZN4llvm13X86AsmPrinter12MaskKCFITypeEj(ptr noundef nonnull align 8 dereferenceable(896) %0, i32 noundef %1) #0 align 2 {
  %3 = alloca i32, align 4
  %4 = alloca ptr, align 8
  %5 = alloca i32, align 4
  %6 = alloca [2 x i32], align 4
  %7 = alloca ptr, align 8
  %8 = alloca ptr, align 8
  %9 = alloca ptr, align 8
  %10 = alloca i32, align 4
  store ptr %0, ptr %4, align 8
  store i32 %1, ptr %5, align 4
  call void @llvm.memcpy.p0.p0.i64(ptr align 4 %6, ptr align 4 @__const._ZN4llvm13X86AsmPrinter12MaskKCFITypeEj.InvalidValues, i64 8, i1 false)
  store ptr %6, ptr %7, align 8
  %11 = load ptr, ptr %7, align 8
  %12 = getelementptr inbounds [2 x i32], ptr %11, i64 0, i64 0
  store ptr %12, ptr %8, align 8
  %13 = load ptr, ptr %7, align 8
  %14 = getelementptr inbounds [2 x i32], ptr %13, i64 0, i64 0
  %15 = getelementptr inbounds i32, ptr %14, i64 2
  store ptr %15, ptr %9, align 8
  br label %16

16:                                               ; preds = %35, %2
  %17 = load ptr, ptr %8, align 8
  %18 = load ptr, ptr %9, align 8
  %19 = icmp ne ptr %17, %18
  br i1 %19, label %20, label %38

20:                                               ; preds = %16
  %21 = load ptr, ptr %8, align 8
  %22 = load i32, ptr %21, align 4
  store i32 %22, ptr %10, align 4
  %23 = load i32, ptr %10, align 4
  %24 = load i32, ptr %5, align 4
  %25 = icmp eq i32 %23, %24
  br i1 %25, label %31, label %26

26:                                               ; preds = %20
  %27 = load i32, ptr %10, align 4
  %28 = sub i32 0, %27
  %29 = load i32, ptr %5, align 4
  %30 = icmp eq i32 %28, %29
  br i1 %30, label %31, label %34

31:                                               ; preds = %26, %20
  %32 = load i32, ptr %5, align 4
  %33 = add i32 %32, 1
  store i32 %33, ptr %3, align 4
  br label %40

34:                                               ; preds = %26
  br label %35

35:                                               ; preds = %34
  %36 = load ptr, ptr %8, align 8
  %37 = getelementptr inbounds i32, ptr %36, i32 1
  store ptr %37, ptr %8, align 8
  br label %16

38:                                               ; preds = %16
  %39 = load i32, ptr %5, align 4
  store i32 %39, ptr %3, align 4
  br label %40

40:                                               ; preds = %38, %31
  %41 = load i32, ptr %3, align 4
  ret i32 %41
}