; Function Attrs: mustprogress nofree norecurse nosync nounwind willreturn memory(none) uwtable
define hidden noundef i32 @_ZN4llvm13X86AsmPrinter12MaskKCFITypeEj(ptr nocapture noundef nonnull readnone align 8 dereferenceable(896) %0, i32 noundef %1) local_unnamed_addr #3 align 2 {
  %3 = alloca [2 x i32], align 8
  store i64 -351826180340576269, ptr %3, align 8
  br label %5

4:                                                ; preds = %5
  %.012.add = add nuw nsw i64 %.012.idx16, 4
  %.not = icmp eq i64 %.012.add, 8
  br i1 %.not, label %.loopexit, label %5

5:                                                ; preds = %2, %4
  %.012.idx16 = phi i64 [ 0, %2 ], [ %.012.add, %4 ]
  %.012.ptr = getelementptr inbounds i8, ptr %3, i64 %.012.idx16
  %6 = load i32, ptr %.012.ptr, align 4
  %7 = icmp eq i32 %6, %1
  %8 = sub i32 0, %6
  %9 = icmp eq i32 %1, %8
  %or.cond = or i1 %7, %9
  br i1 %or.cond, label %10, label %4

10:                                               ; preds = %5
  %11 = add i32 %1, 1
  br label %.loopexit

.loopexit:                                        ; preds = %4, %10
  %.0 = phi i32 [ %11, %10 ], [ %1, %4 ]
  ret i32 %.0
}